target datalayout = "e-m:e-p270:32:32-p271:32:32-p272:64:64-i64:64-i128:128-f80:128-n8:16:32:64-S128"
target triple = "x86_64-unknown-linux-gnu"

%class.btDiscreteDynamicsWorld = type <{ %class.btDynamicsWorld, %class.btAlignedObjectArray.0, ptr, ptr, ptr, %class.btAlignedObjectArray.0, %class.btAlignedObjectArray.4, %class.btVector3, float, float, i8, i8, i8, i8, [4 x i8], %class.btAlignedObjectArray.8, i32, i8, [3 x i8], %class.btAlignedObjectArray.12, %class.btSpinMutex, [4 x i8] }>
%class.btDynamicsWorld = type { %class.btCollisionWorld.base, ptr, ptr, ptr, %struct.btContactSolverInfo }
%class.btCollisionWorld.base = type <{ ptr, %class.btAlignedObjectArray, ptr, %struct.btDispatcherInfo, ptr, ptr, i8 }>
%class.btAlignedObjectArray = type <{ %class.btAlignedAllocator, [3 x i8], i32, i32, [4 x i8], ptr, i8, [7 x i8] }>
%class.btAlignedAllocator = type { i8 }
%struct.btDispatcherInfo = type <{ float, i32, i32, float, i8, [7 x i8], ptr, i8, i8, i8, i8, float, i8, [3 x i8], float, i8, [7 x i8] }>
%struct.btContactSolverInfo = type { %struct.btContactSolverInfoData }
%struct.btContactSolverInfoData = type { float, float, float, float, float, i32, float, float, float, float, float, float, float, float, float, float, i32, float, float, float, float, float, i32, i32, i32, float, float, float, float, i8, i8, i32, i32 }
%class.btAlignedObjectArray.0 = type <{ %class.btAlignedAllocator.1, [3 x i8], i32, i32, [4 x i8], ptr, i8, [7 x i8] }>
%class.btAlignedAllocator.1 = type { i8 }
%class.btAlignedObjectArray.4 = type <{ %class.btAlignedAllocator.5, [3 x i8], i32, i32, [4 x i8], ptr, i8, [7 x i8] }>
%class.btAlignedAllocator.5 = type { i8 }
%class.btVector3 = type { [4 x float] }
%class.btAlignedObjectArray.8 = type <{ %class.btAlignedAllocator.9, [3 x i8], i32, i32, [4 x i8], ptr, i8, [7 x i8] }>
%class.btAlignedAllocator.9 = type { i8 }
%class.btAlignedObjectArray.12 = type <{ %class.btAlignedAllocator.13, [3 x i8], i32, i32, [4 x i8], ptr, i8, [7 x i8] }>
%class.btAlignedAllocator.13 = type { i8 }
%class.btSpinMutex = type { i32 }

@gDisableDeactivation = external global i8, align 1

; Function Attrs: mustprogress nounwind uwtable
define linkonce_odr dso_local noundef float @_Z6btFabsf(float noundef %x) #1 comdat {
entry:
  %x.addr = alloca float, align 4
  store float %x, ptr %x.addr, align 4
  %0 = load float, ptr %x.addr, align 4
  %1 = call float @llvm.fabs.f32(float %0)
  ret float %1
}

; Function Attrs: mustprogress uwtable
define linkonce_odr dso_local noundef zeroext i1 @_Z11btFuzzyZerof(float noundef %x) #2 comdat {
entry:
  %x.addr = alloca float, align 4
  store float %x, ptr %x.addr, align 4
  %0 = load float, ptr %x.addr, align 4
  %call = call noundef float @_Z6btFabsf(float noundef %0)
  %cmp = fcmp olt float %call, 0x3E80000000000000
  ret i1 %cmp
}

; Function Attrs: mustprogress nounwind uwtable
define dso_local void @_ZN23btDiscreteDynamicsWorld14startProfilingEf(ptr noundef nonnull align 8 dereferenceable(508) %this, float noundef %timeStep) #1 align 2 {
entry:
  %this.addr = alloca ptr, align 8
  %timeStep.addr = alloca float, align 4
  store ptr %this, ptr %this.addr, align 8
  store float %timeStep, ptr %timeStep.addr, align 4
  ret void
}

; Function Attrs: mustprogress uwtable
define dso_local noundef i32 @_ZN23btDiscreteDynamicsWorld14stepSimulationEfif(ptr noundef nonnull align 8 dereferenceable(508) %this, float noundef %timeStep, i32 noundef %maxSubSteps, float noundef %fixedTimeStep) unnamed_addr #2 align 2 {
entry:
  %this.addr = alloca ptr, align 8
  %timeStep.addr = alloca float, align 4
  %maxSubSteps.addr = alloca i32, align 4
  %fixedTimeStep.addr = alloca float, align 4
  %numSimulationSubSteps = alloca i32, align 4
  %debugDrawer = alloca ptr, align 8
  %clampedSimulationSteps = alloca i32, align 4
  %i = alloca i32, align 4
  store ptr %this, ptr %this.addr, align 8
  store float %timeStep, ptr %timeStep.addr, align 4
  store i32 %maxSubSteps, ptr %maxSubSteps.addr, align 4
  store float %fixedTimeStep, ptr %fixedTimeStep.addr, align 4
  %this1 = load ptr, ptr %this.addr, align 8
  %0 = load float, ptr %timeStep.addr, align 4
  call void @_ZN23btDiscreteDynamicsWorld14startProfilingEf(ptr noundef nonnull align 8 dereferenceable(508) %this1, float noundef %0)
  store i32 0, ptr %numSimulationSubSteps, align 4
  %1 = load i32, ptr %maxSubSteps.addr, align 4
  %tobool = icmp ne i32 %1, 0
  br i1 %tobool, label %if.then, label %if.else

if.then:                                          ; preds = %entry
  %2 = load float, ptr %fixedTimeStep.addr, align 4
  %m_fixedTimeStep = getelementptr inbounds %class.btDiscreteDynamicsWorld, ptr %this1, i32 0, i32 9
  store float %2, ptr %m_fixedTimeStep, align 4
  %3 = load float, ptr %timeStep.addr, align 4
  %m_localTime = getelementptr inbounds %class.btDiscreteDynamicsWorld, ptr %this1, i32 0, i32 8
  %4 = load float, ptr %m_localTime, align 8
  %add = fadd float %4, %3
  store float %add, ptr %m_localTime, align 8
  %m_localTime2 = getelementptr inbounds %class.btDiscreteDynamicsWorld, ptr %this1, i32 0, i32 8
  %5 = load float, ptr %m_localTime2, align 8
  %6 = load float, ptr %fixedTimeStep.addr, align 4
  %cmp = fcmp oge float %5, %6
  br i1 %cmp, label %if.then3, label %if.end

if.then3:                                         ; preds = %if.then
  %m_localTime4 = getelementptr inbounds %class.btDiscreteDynamicsWorld, ptr %this1, i32 0, i32 8
  %7 = load float, ptr %m_localTime4, align 8
  %8 = load float, ptr %fixedTimeStep.addr, align 4
  %div = fdiv float %7, %8
  %conv = fptosi float %div to i32
  store i32 %conv, ptr %numSimulationSubSteps, align 4
  %9 = load i32, ptr %numSimulationSubSteps, align 4
  %conv5 = sitofp i32 %9 to float
  %10 = load float, ptr %fixedTimeStep.addr, align 4
  %m_localTime6 = getelementptr inbounds %class.btDiscreteDynamicsWorld, ptr %this1, i32 0, i32 8
  %11 = load float, ptr %m_localTime6, align 8
  %neg = fneg float %conv5
  %12 = call float @llvm.fmuladd.f32(float %neg, float %10, float %11)
  store float %12, ptr %m_localTime6, align 8
  br label %if.end

if.end:                                           ; preds = %if.then3, %if.then
  br label %if.end13

if.else:                                          ; preds = %entry
  %13 = load float, ptr %timeStep.addr, align 4
  store float %13, ptr %fixedTimeStep.addr, align 4
  %m_latencyMotionStateInterpolation = getelementptr inbounds %class.btDiscreteDynamicsWorld, ptr %this1, i32 0, i32 17
  %14 = load i8, ptr %m_latencyMotionStateInterpolation, align 4
  %tobool7 = trunc i8 %14 to i1
  br i1 %tobool7, label %cond.true, label %cond.false

cond.true:                                        ; preds = %if.else
  br label %cond.end

cond.false:                                       ; preds = %if.else
  %15 = load float, ptr %timeStep.addr, align 4
  br label %cond.end

cond.end:                                         ; preds = %cond.false, %cond.true
  %cond = phi float [ 0.000000e+00, %cond.true ], [ %15, %cond.false ]
  %m_localTime8 = getelementptr inbounds %class.btDiscreteDynamicsWorld, ptr %this1, i32 0, i32 8
  store float %cond, ptr %m_localTime8, align 8
  %m_fixedTimeStep9 = getelementptr inbounds %class.btDiscreteDynamicsWorld, ptr %this1, i32 0, i32 9
  store float 0.000000e+00, ptr %m_fixedTimeStep9, align 4
  %16 = load float, ptr %timeStep.addr, align 4
  %call = call noundef zeroext i1 @_Z11btFuzzyZerof(float noundef %16)
  br i1 %call, label %if.then10, label %if.else11

if.then10:                                        ; preds = %cond.end
  store i32 0, ptr %numSimulationSubSteps, align 4
  store i32 0, ptr %maxSubSteps.addr, align 4
  br label %if.end12

if.else11:                                        ; preds = %cond.end
  store i32 1, ptr %numSimulationSubSteps, align 4
  store i32 1, ptr %maxSubSteps.addr, align 4
  br label %if.end12

if.end12:                                         ; preds = %if.else11, %if.then10
  br label %if.end13

if.end13:                                         ; preds = %if.end12, %if.end
  %vtable = load ptr, ptr %this1, align 8
  %vfn = getelementptr inbounds ptr, ptr %vtable, i64 5
  %17 = load ptr, ptr %vfn, align 8
  %call14 = call noundef ptr %17(ptr noundef nonnull align 8 dereferenceable(121) %this1)
  %tobool15 = icmp ne ptr %call14, null
  br i1 %tobool15, label %if.then16, label %if.end24

if.then16:                                        ; preds = %if.end13
  %vtable17 = load ptr, ptr %this1, align 8
  %vfn18 = getelementptr inbounds ptr, ptr %vtable17, i64 5
  %18 = load ptr, ptr %vfn18, align 8
  %call19 = call noundef ptr %18(ptr noundef nonnull align 8 dereferenceable(121) %this1)
  store ptr %call19, ptr %debugDrawer, align 8
  %19 = load ptr, ptr %debugDrawer, align 8
  %vtable20 = load ptr, ptr %19, align 8
  %vfn21 = getelementptr inbounds ptr, ptr %vtable20, i64 14
  %20 = load ptr, ptr %vfn21, align 8
  %call22 = call noundef i32 %20(ptr noundef nonnull align 8 dereferenceable(8) %19)
  %and = and i32 %call22, 16
  %cmp23 = icmp ne i32 %and, 0
  %frombool = zext i1 %cmp23 to i8
  store i8 %frombool, ptr @gDisableDeactivation, align 1
  br label %if.end24

if.end24:                                         ; preds = %if.then16, %if.end13
  %21 = load i32, ptr %numSimulationSubSteps, align 4
  %tobool25 = icmp ne i32 %21, 0
  br i1 %tobool25, label %if.then26, label %if.else42

if.then26:                                        ; preds = %if.end24
  %22 = load i32, ptr %numSimulationSubSteps, align 4
  %23 = load i32, ptr %maxSubSteps.addr, align 4
  %cmp27 = icmp sgt i32 %22, %23
  br i1 %cmp27, label %cond.true28, label %cond.false29

cond.true28:                                      ; preds = %if.then26
  %24 = load i32, ptr %maxSubSteps.addr, align 4
  br label %cond.end30

cond.false29:                                     ; preds = %if.then26
  %25 = load i32, ptr %numSimulationSubSteps, align 4
  br label %cond.end30

cond.end30:                                       ; preds = %cond.false29, %cond.true28
  %cond31 = phi i32 [ %24, %cond.true28 ], [ %25, %cond.false29 ]
  store i32 %cond31, ptr %clampedSimulationSteps, align 4
  %26 = load float, ptr %fixedTimeStep.addr, align 4
  %27 = load i32, ptr %clampedSimulationSteps, align 4
  %conv32 = sitofp i32 %27 to float
  %mul = fmul float %26, %conv32
  %vtable33 = load ptr, ptr %this1, align 8
  %vfn34 = getelementptr inbounds ptr, ptr %vtable33, i64 42
  %28 = load ptr, ptr %vfn34, align 8
  call void %28(ptr noundef nonnull align 8 dereferenceable(508) %this1, float noundef %mul)
  %vtable35 = load ptr, ptr %this1, align 8
  %vfn36 = getelementptr inbounds ptr, ptr %vtable35, i64 45
  %29 = load ptr, ptr %vfn36, align 8
  call void %29(ptr noundef nonnull align 8 dereferenceable(508) %this1)
  store i32 0, ptr %i, align 4
  br label %for.cond

for.cond:                                         ; preds = %for.inc, %cond.end30
  %30 = load i32, ptr %i, align 4
  %31 = load i32, ptr %clampedSimulationSteps, align 4
  %cmp37 = icmp slt i32 %30, %31
  br i1 %cmp37, label %for.body, label %for.end

for.body:                                         ; preds = %for.cond
  %32 = load float, ptr %fixedTimeStep.addr, align 4
  %vtable38 = load ptr, ptr %this1, align 8
  %vfn39 = getelementptr inbounds ptr, ptr %vtable38, i64 40
  %33 = load ptr, ptr %vfn39, align 8
  call void %33(ptr noundef nonnull align 8 dereferenceable(508) %this1, float noundef %32)
  %vtable40 = load ptr, ptr %this1, align 8
  %vfn41 = getelementptr inbounds ptr, ptr %vtable40, i64 21
  %34 = load ptr, ptr %vfn41, align 8
  call void %34(ptr noundef nonnull align 8 dereferenceable(508) %this1)
  br label %for.inc

for.inc:                                          ; preds = %for.body
  %35 = load i32, ptr %i, align 4
  %inc = add nsw i32 %35, 1
  store i32 %inc, ptr %i, align 4
  br label %for.cond, !llvm.loop !13

for.end:                                          ; preds = %for.cond
  br label %if.end45

if.else42:                                        ; preds = %if.end24
  %vtable43 = load ptr, ptr %this1, align 8
  %vfn44 = getelementptr inbounds ptr, ptr %vtable43, i64 21
  %36 = load ptr, ptr %vfn44, align 8
  call void %36(ptr noundef nonnull align 8 dereferenceable(508) %this1)
  br label %if.end45

if.end45:                                         ; preds = %if.else42, %for.end
  %vtable46 = load ptr, ptr %this1, align 8
  %vfn47 = getelementptr inbounds ptr, ptr %vtable46, i64 31
  %37 = load ptr, ptr %vfn47, align 8
  call void %37(ptr noundef nonnull align 8 dereferenceable(508) %this1)
  %38 = load i32, ptr %numSimulationSubSteps, align 4
  ret i32 %38
}