; Function Attrs: mustprogress uwtable
define dso_local noundef i32 @_ZN23btDiscreteDynamicsWorld14stepSimulationEfif(ptr noundef nonnull align 8 dereferenceable(508) %this, float noundef %timeStep, i32 noundef %maxSubSteps, float noundef %fixedTimeStep) unnamed_addr #0 align 2 {
entry:
  %tobool.not = icmp eq i32 %maxSubSteps, 0
  br i1 %tobool.not, label %if.else, label %if.then

if.then:                                          ; preds = %entry
  %m_fixedTimeStep = getelementptr inbounds i8, ptr %this, i64 420
  store float %fixedTimeStep, ptr %m_fixedTimeStep, align 4
  %m_localTime = getelementptr inbounds i8, ptr %this, i64 416
  %0 = load float, ptr %m_localTime, align 8
  %add = fadd float %0, %timeStep
  store float %add, ptr %m_localTime, align 8
  %cmp = fcmp ult float %add, %fixedTimeStep
  br i1 %cmp, label %if.end13, label %if.then3

if.then3:                                         ; preds = %if.then
  %div = fdiv float %add, %fixedTimeStep
  %conv = fptosi float %div to i32
  %conv5 = sitofp i32 %conv to float
  %neg = fneg float %conv5
  %1 = tail call float @llvm.fmuladd.f32(float %neg, float %fixedTimeStep, float %add)
  store float %1, ptr %m_localTime, align 8
  br label %if.end13

if.else:                                          ; preds = %entry
  %m_latencyMotionStateInterpolation = getelementptr inbounds i8, ptr %this, i64 468
  %2 = load i8, ptr %m_latencyMotionStateInterpolation, align 4
  %3 = and i8 %2, 1
  %tobool7.not = icmp eq i8 %3, 0
  %cond = select i1 %tobool7.not, float %timeStep, float 0.000000e+00
  %m_localTime8 = getelementptr inbounds i8, ptr %this, i64 416
  store float %cond, ptr %m_localTime8, align 8
  %m_fixedTimeStep9 = getelementptr inbounds i8, ptr %this, i64 420
  store float 0.000000e+00, ptr %m_fixedTimeStep9, align 4
  %4 = tail call noundef float @llvm.fabs.f32(float %timeStep)
  %cmp.i = fcmp uge float %4, 0x3E80000000000000
  %. = zext i1 %cmp.i to i32
  br label %if.end13

if.end13:                                         ; preds = %if.else, %if.then, %if.then3
  %numSimulationSubSteps.0 = phi i32 [ %conv, %if.then3 ], [ 0, %if.then ], [ %., %if.else ]
  %fixedTimeStep.addr.0 = phi float [ %fixedTimeStep, %if.then3 ], [ %fixedTimeStep, %if.then ], [ %timeStep, %if.else ]
  %maxSubSteps.addr.0 = phi i32 [ %maxSubSteps, %if.then3 ], [ %maxSubSteps, %if.then ], [ %., %if.else ]
  %vtable = load ptr, ptr %this, align 8
  %vfn = getelementptr inbounds i8, ptr %vtable, i64 40
  %5 = load ptr, ptr %vfn, align 8
  %call14 = tail call noundef ptr %5(ptr noundef nonnull align 8 dereferenceable(121) %this)
  %tobool15.not = icmp eq ptr %call14, null
  br i1 %tobool15.not, label %if.end24, label %if.then16

if.then16:                                        ; preds = %if.end13
  %vtable17 = load ptr, ptr %this, align 8
  %vfn18 = getelementptr inbounds i8, ptr %vtable17, i64 40
  %6 = load ptr, ptr %vfn18, align 8
  %call19 = tail call noundef ptr %6(ptr noundef nonnull align 8 dereferenceable(121) %this)
  %vtable20 = load ptr, ptr %call19, align 8
  %vfn21 = getelementptr inbounds i8, ptr %vtable20, i64 112
  %7 = load ptr, ptr %vfn21, align 8
  %call22 = tail call noundef i32 %7(ptr noundef nonnull align 8 dereferenceable(8) %call19)
  %8 = trunc i32 %call22 to i8
  %9 = lshr i8 %8, 4
  %frombool = and i8 %9, 1
  store i8 %frombool, ptr @gDisableDeactivation, align 1
  br label %if.end24

if.end24:                                         ; preds = %if.then16, %if.end13
  %tobool25.not = icmp eq i32 %numSimulationSubSteps.0, 0
  br i1 %tobool25.not, label %if.else42, label %if.then26

if.then26:                                        ; preds = %if.end24
  %cond31 = tail call i32 @llvm.smin.i32(i32 %numSimulationSubSteps.0, i32 %maxSubSteps.addr.0)
  %conv32 = sitofp i32 %cond31 to float
  %mul = fmul float %fixedTimeStep.addr.0, %conv32
  %vtable33 = load ptr, ptr %this, align 8
  %vfn34 = getelementptr inbounds i8, ptr %vtable33, i64 336
  %10 = load ptr, ptr %vfn34, align 8
  tail call void %10(ptr noundef nonnull align 8 dereferenceable(508) %this, float noundef %mul)
  %vtable35 = load ptr, ptr %this, align 8
  %vfn36 = getelementptr inbounds i8, ptr %vtable35, i64 360
  %11 = load ptr, ptr %vfn36, align 8
  tail call void %11(ptr noundef nonnull align 8 dereferenceable(508) %this)
  %cmp3718 = icmp sgt i32 %cond31, 0
  br i1 %cmp3718, label %for.body, label %if.end45

for.body:                                         ; preds = %if.then26, %for.body
  %i.019 = phi i32 [ %inc, %for.body ], [ 0, %if.then26 ]
  %vtable38 = load ptr, ptr %this, align 8
  %vfn39 = getelementptr inbounds i8, ptr %vtable38, i64 320
  %12 = load ptr, ptr %vfn39, align 8
  tail call void %12(ptr noundef nonnull align 8 dereferenceable(508) %this, float noundef %fixedTimeStep.addr.0)
  %vtable40 = load ptr, ptr %this, align 8
  %vfn41 = getelementptr inbounds i8, ptr %vtable40, i64 168
  %13 = load ptr, ptr %vfn41, align 8
  tail call void %13(ptr noundef nonnull align 8 dereferenceable(508) %this)
  %inc = add nuw nsw i32 %i.019, 1
  %exitcond.not = icmp eq i32 %inc, %cond31
  br i1 %exitcond.not, label %if.end45, label %for.body, !llvm.loop !13

if.else42:                                        ; preds = %if.end24
  %vtable43 = load ptr, ptr %this, align 8
  %vfn44 = getelementptr inbounds i8, ptr %vtable43, i64 168
  %14 = load ptr, ptr %vfn44, align 8
  tail call void %14(ptr noundef nonnull align 8 dereferenceable(508) %this)
  br label %if.end45

if.end45:                                         ; preds = %for.body, %if.then26, %if.else42
  %vtable46 = load ptr, ptr %this, align 8
  %vfn47 = getelementptr inbounds i8, ptr %vtable46, i64 248
  %15 = load ptr, ptr %vfn47, align 8
  tail call void %15(ptr noundef nonnull align 8 dereferenceable(508) %this)
  ret i32 %numSimulationSubSteps.0
}